target datalayout = "e-m:e-p270:32:32-p271:32:32-p272:64:64-i64:64-i128:128-f80:128-n8:16:32:64-S128"
target triple = "x86_64-pc-linux-gnu"

%struct.AF_CJKMetricsRec_ = type { %struct.AF_StyleMetricsRec_, i32, [2 x %struct.AF_CJKAxisRec_] }
%struct.AF_StyleMetricsRec_ = type { ptr, %struct.AF_ScalerRec_, i8, ptr }
%struct.AF_ScalerRec_ = type { ptr, i64, i64, i64, i64, i32, i32 }
%struct.AF_CJKAxisRec_ = type { i64, i64, i32, [16 x %struct.AF_WidthRec_], i64, i64, i8, i8, i32, [8 x %struct.AF_CJKBlueRec_], i64, i64 }
%struct.AF_WidthRec_ = type { i64, i64, i64 }
%struct.AF_CJKBlueRec_ = type { %struct.AF_WidthRec_, %struct.AF_WidthRec_, i32 }
%struct.hb_glyph_info_t = type { i32, i32, i32, %union._hb_var_int_t, %union._hb_var_int_t }
%union._hb_var_int_t = type { i32 }
%struct.hb_glyph_position_t = type { i32, i32, i32, i32, %union._hb_var_int_t }

@__const.af_cjk_metrics_check_digits.digits = private unnamed_addr constant [20 x i8] c"0 1 2 3 4 5 6 7 8 9\00", align 16

; Function Attrs: nounwind uwtable
define hidden void @af_shaper_buf_destroy(ptr noundef %0, ptr noundef %1) #0 {
  %3 = alloca ptr, align 8
  %4 = alloca ptr, align 8
  store ptr %0, ptr %3, align 8, !tbaa !8
  store ptr %1, ptr %4, align 8, !tbaa !153
  %5 = load ptr, ptr %3, align 8, !tbaa !8
  store ptr %5, ptr %3, align 8, !tbaa !8
  %6 = load ptr, ptr %4, align 8, !tbaa !153
  call void @hb_buffer_destroy(ptr noundef %6)
  ret void
}

; Function Attrs: nounwind uwtable
define hidden i64 @af_shaper_get_elem(ptr noundef %0, ptr noundef %1, i32 noundef %2, ptr noundef %3, ptr noundef %4) #0 {
  %6 = alloca i64, align 8
  %7 = alloca ptr, align 8
  %8 = alloca ptr, align 8
  %9 = alloca i32, align 4
  %10 = alloca ptr, align 8
  %11 = alloca ptr, align 8
  %12 = alloca ptr, align 8
  %13 = alloca ptr, align 8
  %14 = alloca ptr, align 8
  %15 = alloca i32, align 4
  %16 = alloca i32, align 4
  store ptr %0, ptr %7, align 8, !tbaa !3
  store ptr %1, ptr %8, align 8, !tbaa !153
  store i32 %2, ptr %9, align 4, !tbaa !43
  store ptr %3, ptr %10, align 8, !tbaa !44
  store ptr %4, ptr %11, align 8, !tbaa !44
  call void @llvm.lifetime.start.p0(i64 8, ptr %12) #10
  %17 = load ptr, ptr %8, align 8, !tbaa !153
  store ptr %17, ptr %12, align 8, !tbaa !154
  call void @llvm.lifetime.start.p0(i64 8, ptr %13) #10
  call void @llvm.lifetime.start.p0(i64 8, ptr %14) #10
  call void @llvm.lifetime.start.p0(i64 4, ptr %15) #10
  %18 = load ptr, ptr %7, align 8, !tbaa !3
  store ptr %18, ptr %7, align 8, !tbaa !3
  %19 = load ptr, ptr %12, align 8, !tbaa !154
  %20 = call ptr @hb_buffer_get_glyph_infos(ptr noundef %19, ptr noundef %15)
  store ptr %20, ptr %13, align 8, !tbaa !164
  %21 = load ptr, ptr %12, align 8, !tbaa !154
  %22 = call ptr @hb_buffer_get_glyph_positions(ptr noundef %21, ptr noundef %15)
  store ptr %22, ptr %14, align 8, !tbaa !169
  %23 = load i32, ptr %9, align 4, !tbaa !43
  %24 = load i32, ptr %15, align 4, !tbaa !43
  %25 = icmp uge i32 %23, %24
  br i1 %25, label %26, label %27

26:                                               ; preds = %5
  store i64 0, ptr %6, align 8
  store i32 1, ptr %16, align 4
  br label %59

27:                                               ; preds = %5
  %28 = load ptr, ptr %10, align 8, !tbaa !44
  %29 = icmp ne ptr %28, null
  br i1 %29, label %30, label %39

30:                                               ; preds = %27
  %31 = load ptr, ptr %14, align 8, !tbaa !169
  %32 = load i32, ptr %9, align 4, !tbaa !43
  %33 = zext i32 %32 to i64
  %34 = getelementptr inbounds nuw %struct.hb_glyph_position_t, ptr %31, i64 %33
  %35 = getelementptr inbounds nuw %struct.hb_glyph_position_t, ptr %34, i32 0, i32 0
  %36 = load i32, ptr %35, align 4, !tbaa !171
  %37 = sext i32 %36 to i64
  %38 = load ptr, ptr %10, align 8, !tbaa !44
  store i64 %37, ptr %38, align 8, !tbaa !42
  br label %39

39:                                               ; preds = %30, %27
  %40 = load ptr, ptr %11, align 8, !tbaa !44
  %41 = icmp ne ptr %40, null
  br i1 %41, label %42, label %51

42:                                               ; preds = %39
  %43 = load ptr, ptr %14, align 8, !tbaa !169
  %44 = load i32, ptr %9, align 4, !tbaa !43
  %45 = zext i32 %44 to i64
  %46 = getelementptr inbounds nuw %struct.hb_glyph_position_t, ptr %43, i64 %45
  %47 = getelementptr inbounds nuw %struct.hb_glyph_position_t, ptr %46, i32 0, i32 3
  %48 = load i32, ptr %47, align 4, !tbaa !173
  %49 = sext i32 %48 to i64
  %50 = load ptr, ptr %11, align 8, !tbaa !44
  store i64 %49, ptr %50, align 8, !tbaa !42
  br label %51

51:                                               ; preds = %42, %39
  %52 = load ptr, ptr %13, align 8, !tbaa !164
  %53 = load i32, ptr %9, align 4, !tbaa !43
  %54 = zext i32 %53 to i64
  %55 = getelementptr inbounds nuw %struct.hb_glyph_info_t, ptr %52, i64 %54
  %56 = getelementptr inbounds nuw %struct.hb_glyph_info_t, ptr %55, i32 0, i32 0
  %57 = load i32, ptr %56, align 4, !tbaa !166
  %58 = zext i32 %57 to i64
  store i64 %58, ptr %6, align 8
  store i32 1, ptr %16, align 4
  br label %59

59:                                               ; preds = %51, %26
  call void @llvm.lifetime.end.p0(i64 4, ptr %15) #10
  call void @llvm.lifetime.end.p0(i64 8, ptr %14) #10
  call void @llvm.lifetime.end.p0(i64 8, ptr %13) #10
  call void @llvm.lifetime.end.p0(i64 8, ptr %12) #10
  %60 = load i64, ptr %6, align 8
  ret i64 %60
}

; Function Attrs: nounwind uwtable
define hidden ptr @af_shaper_buf_create(ptr noundef %0) #0 {
  %2 = alloca ptr, align 8
  store ptr %0, ptr %2, align 8, !tbaa !8
  %3 = load ptr, ptr %2, align 8, !tbaa !8
  store ptr %3, ptr %2, align 8, !tbaa !8
  %4 = call ptr @hb_buffer_create()
  ret ptr %4
}

; Function Attrs: nounwind uwtable
define internal void @af_cjk_metrics_check_digits(ptr noundef %0, ptr noundef %1) #0 {
  %3 = alloca ptr, align 8
  %4 = alloca ptr, align 8
  %5 = alloca i8, align 1
  %6 = alloca i8, align 1
  %7 = alloca i64, align 8
  %8 = alloca i64, align 8
  %9 = alloca ptr, align 8
  %10 = alloca [20 x i8], align 16
  %11 = alloca ptr, align 8
  %12 = alloca i64, align 8
  %13 = alloca i32, align 4
  %14 = alloca i32, align 4
  store ptr %0, ptr %3, align 8, !tbaa !10
  store ptr %1, ptr %4, align 8, !tbaa !8
  call void @llvm.lifetime.start.p0(i64 1, ptr %5) #10
  store i8 0, ptr %5, align 1, !tbaa !127
  call void @llvm.lifetime.start.p0(i64 1, ptr %6) #10
  store i8 1, ptr %6, align 1, !tbaa !127
  call void @llvm.lifetime.start.p0(i64 8, ptr %7) #10
  store i64 0, ptr %7, align 8, !tbaa !42
  call void @llvm.lifetime.start.p0(i64 8, ptr %8) #10
  store i64 0, ptr %8, align 8, !tbaa !42
  call void @llvm.lifetime.start.p0(i64 8, ptr %9) #10
  call void @llvm.lifetime.start.p0(i64 20, ptr %10) #10
  call void @llvm.memcpy.p0.p0.i64(ptr align 16 %10, ptr align 16 @__const.af_cjk_metrics_check_digits.digits, i64 20, i1 false)
  call void @llvm.lifetime.start.p0(i64 8, ptr %11) #10
  %15 = getelementptr inbounds [20 x i8], ptr %10, i64 0, i64 0
  store ptr %15, ptr %11, align 8, !tbaa !123
  %16 = load ptr, ptr %4, align 8, !tbaa !8
  %17 = call ptr @af_shaper_buf_create(ptr noundef %16)
  store ptr %17, ptr %9, align 8, !tbaa !153
  br label %18

18:                                               ; preds = %53, %51, %2
  %19 = load ptr, ptr %11, align 8, !tbaa !123
  %20 = load i8, ptr %19, align 1, !tbaa !127
  %21 = icmp ne i8 %20, 0
  br i1 %21, label %22, label %54

22:                                               ; preds = %18
  call void @llvm.lifetime.start.p0(i64 8, ptr %12) #10
  call void @llvm.lifetime.start.p0(i64 4, ptr %13) #10
  %23 = load ptr, ptr %11, align 8, !tbaa !123
  %24 = load ptr, ptr %3, align 8, !tbaa !10
  %25 = getelementptr inbounds nuw %struct.AF_CJKMetricsRec_, ptr %24, i32 0, i32 0
  %26 = load ptr, ptr %9, align 8, !tbaa !153
  %27 = call ptr @af_shaper_get_cluster(ptr noundef %23, ptr noundef %25, ptr noundef %26, ptr noundef %13)
  store ptr %27, ptr %11, align 8, !tbaa !123
  %28 = load i32, ptr %13, align 4, !tbaa !43
  %29 = icmp ugt i32 %28, 1
  br i1 %29, label %30, label %31

30:                                               ; preds = %22
  store i32 2, ptr %14, align 4
  br label %51, !llvm.loop !233

31:                                               ; preds = %22
  %32 = load ptr, ptr %3, align 8, !tbaa !10
  %33 = getelementptr inbounds nuw %struct.AF_CJKMetricsRec_, ptr %32, i32 0, i32 0
  %34 = load ptr, ptr %9, align 8, !tbaa !153
  %35 = call i64 @af_shaper_get_elem(ptr noundef %33, ptr noundef %34, i32 noundef 0, ptr noundef %7, ptr noundef null)
  store i64 %35, ptr %12, align 8, !tbaa !42
  %36 = load i64, ptr %12, align 8, !tbaa !42
  %37 = icmp ne i64 %36, 0
  br i1 %37, label %39, label %38

38:                                               ; preds = %31
  store i32 2, ptr %14, align 4
  br label %51, !llvm.loop !233

39:                                               ; preds = %31
  %40 = load i8, ptr %5, align 1, !tbaa !127
  %41 = icmp ne i8 %40, 0
  br i1 %41, label %42, label %48

42:                                               ; preds = %39
  %43 = load i64, ptr %7, align 8, !tbaa !42
  %44 = load i64, ptr %8, align 8, !tbaa !42
  %45 = icmp ne i64 %43, %44
  br i1 %45, label %46, label %47

46:                                               ; preds = %42
  store i8 0, ptr %6, align 1, !tbaa !127
  store i32 3, ptr %14, align 4
  br label %51

47:                                               ; preds = %42
  br label %50

48:                                               ; preds = %39
  %49 = load i64, ptr %7, align 8, !tbaa !42
  store i64 %49, ptr %8, align 8, !tbaa !42
  store i8 1, ptr %5, align 1, !tbaa !127
  br label %50

50:                                               ; preds = %48, %47
  store i32 0, ptr %14, align 4
  br label %51

51:                                               ; preds = %50, %46, %38, %30
  call void @llvm.lifetime.end.p0(i64 4, ptr %13) #10
  call void @llvm.lifetime.end.p0(i64 8, ptr %12) #10
  %52 = load i32, ptr %14, align 4
  switch i32 %52, label %61 [
    i32 0, label %53
    i32 2, label %18
    i32 3, label %54
  ]

53:                                               ; preds = %51
  br label %18, !llvm.loop !233

54:                                               ; preds = %51, %18
  %55 = load ptr, ptr %4, align 8, !tbaa !8
  %56 = load ptr, ptr %9, align 8, !tbaa !153
  call void @af_shaper_buf_destroy(ptr noundef %55, ptr noundef %56)
  %57 = load i8, ptr %6, align 1, !tbaa !127
  %58 = load ptr, ptr %3, align 8, !tbaa !10
  %59 = getelementptr inbounds nuw %struct.AF_CJKMetricsRec_, ptr %58, i32 0, i32 0
  %60 = getelementptr inbounds nuw %struct.AF_StyleMetricsRec_, ptr %59, i32 0, i32 2
  store i8 %57, ptr %60, align 8, !tbaa !234
  call void @llvm.lifetime.end.p0(i64 8, ptr %11) #10
  call void @llvm.lifetime.end.p0(i64 20, ptr %10) #10
  call void @llvm.lifetime.end.p0(i64 8, ptr %9) #10
  call void @llvm.lifetime.end.p0(i64 8, ptr %8) #10
  call void @llvm.lifetime.end.p0(i64 8, ptr %7) #10
  call void @llvm.lifetime.end.p0(i64 1, ptr %6) #10
  call void @llvm.lifetime.end.p0(i64 1, ptr %5) #10
  ret void

61:                                               ; preds = %51
  unreachable
}