; Function Attrs: nounwind uwtable
define internal fastcc void @af_cjk_metrics_check_digits(ptr noundef captures(none) %0) unnamed_addr #0 {
  %2 = alloca i32, align 4
  %3 = alloca [20 x i8], align 16
  %4 = alloca i32, align 4
  call void @llvm.lifetime.start.p0(i64 20, ptr nonnull %3) #20
  call void @llvm.memcpy.p0.p0.i64(ptr noundef nonnull align 16 dereferenceable(20) %3, ptr noundef nonnull align 16 dereferenceable(20) @__const.af_latin_metrics_check_digits.digits, i64 20, i1 false)
  %5 = tail call ptr @hb_buffer_create() #20
  br label %.outer

.outer:                                           ; preds = %.loopexit, %1
  %.019.ph = phi i64 [ %.120, %.loopexit ], [ 0, %1 ]
  %.015.ph = phi ptr [ %9, %.loopexit ], [ %3, %1 ]
  %.014.ph = phi i8 [ %.1, %.loopexit ], [ 0, %1 ]
  br label %6

6:                                                ; preds = %.outer, %20
  %.015 = phi ptr [ %9, %20 ], [ %.015.ph, %.outer ]
  %.014 = phi i8 [ 1, %20 ], [ %.014.ph, %.outer ]
  %7 = load i8, ptr %.015, align 1, !tbaa !39
  %.not = icmp eq i8 %7, 0
  br i1 %.not, label %21, label %8

8:                                                ; preds = %6
  call void @llvm.lifetime.start.p0(i64 4, ptr nonnull %4) #20
  %9 = call ptr @af_shaper_get_cluster(ptr noundef nonnull %.015, ptr noundef %0, ptr noundef %5, ptr noundef nonnull %4)
  %10 = load i32, ptr %4, align 4, !tbaa !43
  %11 = icmp ugt i32 %10, 1
  br i1 %11, label %.loopexit, label %12, !llvm.loop !318

12:                                               ; preds = %8
  call void @llvm.lifetime.start.p0(i64 4, ptr nonnull %2) #20
  %13 = call ptr @hb_buffer_get_glyph_infos(ptr noundef %5, ptr noundef nonnull %2) #20
  %14 = call ptr @hb_buffer_get_glyph_positions(ptr noundef %5, ptr noundef nonnull %2) #20
  %15 = load i32, ptr %2, align 4, !tbaa !43
  %.not.i.not = icmp eq i32 %15, 0
  br i1 %.not.i.not, label %af_shaper_get_elem.exit.thread, label %af_shaper_get_elem.exit

af_shaper_get_elem.exit.thread:                   ; preds = %12
  call void @llvm.lifetime.end.p0(i64 4, ptr nonnull %2) #20
  br label %.loopexit

af_shaper_get_elem.exit:                          ; preds = %12
  %16 = load i32, ptr %14, align 4, !tbaa !191
  %17 = sext i32 %16 to i64
  %18 = load i32, ptr %13, align 4, !tbaa !44
  call void @llvm.lifetime.end.p0(i64 4, ptr nonnull %2) #20
  %.not22 = icmp eq i32 %18, 0
  br i1 %.not22, label %.loopexit, label %19, !llvm.loop !318

19:                                               ; preds = %af_shaper_get_elem.exit
  %.not23 = icmp eq i8 %.014, 0
  br i1 %.not23, label %.loopexit, label %20

20:                                               ; preds = %19
  %.not24.not = icmp eq i64 %.019.ph, %17
  call void @llvm.lifetime.end.p0(i64 4, ptr nonnull %4) #20
  br i1 %.not24.not, label %6, label %21

.loopexit:                                        ; preds = %19, %af_shaper_get_elem.exit, %8, %af_shaper_get_elem.exit.thread
  %.120 = phi i64 [ %.019.ph, %af_shaper_get_elem.exit.thread ], [ %17, %19 ], [ %.019.ph, %af_shaper_get_elem.exit ], [ %.019.ph, %8 ]
  %.1 = phi i8 [ %.014, %af_shaper_get_elem.exit.thread ], [ 1, %19 ], [ %.014, %af_shaper_get_elem.exit ], [ %.014, %8 ]
  call void @llvm.lifetime.end.p0(i64 4, ptr nonnull %4) #20
  br label %.outer

21:                                               ; preds = %20, %6
  %.117 = phi i8 [ 1, %6 ], [ 0, %20 ]
  call void @hb_buffer_destroy(ptr noundef %5) #20
  %22 = getelementptr inbounds nuw i8, ptr %0, i64 56
  store i8 %.117, ptr %22, align 8, !tbaa !319
  call void @llvm.lifetime.end.p0(i64 20, ptr nonnull %3) #20
  ret void
}